Certificate:
    Data:
        Version: 1 (0x0)
        Serial Number:
            37:7c:48:59:c1:1a:13:ac:36:b0:7e:98:1f:04:41:90:6f:7d:da:a4
        Signature Algorithm: sha256WithRSAEncryption
        Issuer: C = US, ST = California, L = Santa Clara, O = Beyond Aggravated, CN = localhost
        Validity
            Not Before: Jun 16 11:38:32 2024 GMT
            Not After : Mar 31 11:38:32 2298 GMT
        Subject: C = US, ST = California, L = Santa Clara, O = Beyond Aggravated, CN = localhost
        Subject Public Key Info:
            Public Key Algorithm: rsaEncryption
                Public-Key: (2048 bit)
                Modulus:
                    00:df:b6:4a:0e:7c:5b:bd:ee:c5:4b:a0:a7:1c:36:
                    f5:04:bb:58:db:86:b1:ee:53:b5:b5:16:74:e8:ee:
                    32:20:7c:a8:66:f5:30:4d:00:c8:5b:21:f7:65:60:
                    13:97:a1:1f:f2:9a:f5:67:29:1c:0b:bd:e4:3f:37:
                    c5:ec:1f:3c:ae:eb:b1:ae:3b:95:37:d7:13:7d:ea:
                    3d:0d:a6:f8:c4:cf:15:76:e7:8f:fc:3a:ab:89:ab:
                    13:af:ff:a6:ab:8c:54:e3:33:8a:e3:22:6e:e0:37:
                    eb:a9:69:35:c5:05:fd:b4:0c:a0:d8:0e:1b:c8:d0:
                    47:1b:db:13:f4:e6:be:1b:85:45:a0:dc:39:5a:5a:
                    97:1d:86:91:c9:f6:c1:f5:b9:4b:4b:b6:07:40:87:
                    08:d5:91:86:c5:53:ef:bd:41:22:a9:2a:68:e5:d9:
                    9c:aa:ad:39:e3:68:59:e5:63:39:93:f1:61:20:6e:
                    54:60:be:5a:1c:b5:92:6a:e8:40:3f:c8:85:1f:9e:
                    05:a5:11:3b:b3:68:47:0e:33:14:f9:c1:4c:d2:d6:
                    36:8e:ac:72:b4:8f:e6:e2:af:40:d2:a7:89:ab:4e:
                    68:26:ec:e3:90:a7:72:46:af:e8:6d:3a:aa:5d:01:
                    51:07:61:96:d0:b6:7f:cf:b0:f9:99:67:2f:e4:97:
                    bf:63
                Exponent: 65537 (0x10001)
    Signature Algorithm: sha256WithRSAEncryption
    Signature Value:
        ab:75:a4:ca:51:68:b4:8d:47:f9:c4:5e:19:74:70:67:33:0d:
        21:d5:b9:56:37:a3:e9:37:11:64:52:1e:d1:34:eb:86:3a:23:
        c5:0e:91:fd:01:1b:fc:6b:62:0e:9d:fd:a4:fd:05:ac:3d:bf:
        53:1c:22:3a:a8:94:c0:81:6a:75:93:7f:ce:22:3e:c0:7f:af:
        68:af:40:2e:7f:f5:76:43:b3:04:fc:c5:71:1d:07:e5:3f:d6:
        ac:fa:23:d2:b6:23:b8:a9:89:f2:5a:4e:ab:09:fd:3e:75:9c:
        b0:79:24:1a:5c:ff:c9:d6:ed:50:bc:22:f1:b4:79:a7:9d:b5:
        f0:fb:13:d9:2a:a1:90:c8:19:f6:d2:aa:82:b4:49:37:74:66:
        2c:a8:e4:61:0b:c3:1f:8c:19:cc:76:c0:d3:13:48:b9:12:fa:
        7d:97:45:91:bb:66:fe:e7:16:fe:c1:31:a4:83:3b:12:30:7d:
        2d:e4:68:8b:98:f2:3d:cc:12:ee:1f:49:9c:d1:c5:95:30:62:
        71:2e:59:91:43:cc:e6:3a:6f:3d:9e:c5:d9:1e:8b:44:23:e0:
        ae:e6:83:34:17:f5:41:91:0f:79:82:55:07:25:f8:0e:5d:4f:
        c6:70:0f:6b:8a:af:53:d4:79:a8:e4:ef:7c:1b:b9:f3:2c:db:
        2e:f5:29:a4
-----BEGIN CERTIFICATE-----
MIIDWTCCAkECFDd8SFnBGhOsNrB+mB8EQZBvfdqkMA0GCSqGSIb3DQEBCwUAMGgx
CzAJBgNVBAYTAlVTMRMwEQYDVQQIDApDYWxpZm9ybmlhMRQwEgYDVQQHDAtTYW50
YSBDbGFyYTEaMBgGA1UECgwRQmV5b25kIEFnZ3JhdmF0ZWQxEjAQBgNVBAMMCWxv
Y2FsaG9zdDAgFw0yNDA2MTYxMTM4MzJaGA8yMjk4MDMzMTExMzgzMlowaDELMAkG
A1UEBhMCVVMxEzARBgNVBAgMCkNhbGlmb3JuaWExFDASBgNVBAcMC1NhbnRhIENs
YXJhMRowGAYDVQQKDBFCZXlvbmQgQWdncmF2YXRlZDESMBAGA1UEAwwJbG9jYWxo
b3N0MIIBIjANBgkqhkiG9w0BAQEFAAOCAQ8AMIIBCgKCAQEA37ZKDnxbve7FS6Cn
HDb1BLtY24ax7lO1tRZ06O4yIHyoZvUwTQDIWyH3ZWATl6Ef8pr1ZykcC73kPzfF
7B88ruuxrjuVN9cTfeo9Dab4xM8VdueP/DqriasTr/+mq4xU4zOK4yJu4DfrqWk1
xQX9tAyg2A4byNBHG9sT9Oa+G4VFoNw5WlqXHYaRyfbB9blLS7YHQIcI1ZGGxVPv
vUEiqSpo5dmcqq0542hZ5WM5k/FhIG5UYL5aHLWSauhAP8iFH54FpRE7s2hHDjMU
+cFM0tY2jqxytI/m4q9A0qeJq05oJuzjkKdyRq/obTqqXQFRB2GW0LZ/z7D5mWcv
5Je/YwIDAQABMA0GCSqGSIb3DQEBCwUAA4IBAQCrdaTKUWi0jUf5xF4ZdHBnMw0h
1blWN6PpNxFkUh7RNOuGOiPFDpH9ARv8a2IOnf2k/QWsPb9THCI6qJTAgWp1k3/O
Ij7Af69or0Auf/V2Q7ME/MVxHQflP9as+iPStiO4qYnyWk6rCf0+dZyweSQaXP/J
1u1QvCLxtHmnnbXw+xPZKqGQyBn20qqCtEk3dGYsqORhC8MfjBnMdsDTE0i5Evp9
l0WRu2b+5xb+wTGkgzsSMH0t5GiLmPI9zBLuH0mc0cWVMGJxLlmRQ8zmOm89nsXZ
HotEI+Cu5oM0F/VBkQ95glUHJfgOXU/GcA9riq9T1Hmo5O98G7nzLNsu9Smk
-----END CERTIFICATE-----
